	.file	"swap.c"
	.text
	.globl	swap
	.type	swap, @function
swap:
.LFB0:
	.cfi_startproc
	pushq	%rbp
	.cfi_def_cfa_offset 16
	.cfi_offset 6, -16
	movq	%rsp, %rbp
	.cfi_def_cfa_register 6
	movl	array(%rip), %eax
	movl	%eax, -4(%rbp)
	movl	array+4(%rip), %eax
	movl	%eax, array(%rip)
	movl	-4(%rbp), %eax
	movl	%eax, array+4(%rip)
	nop
	popq	%rbp
	.cfi_def_cfa 7, 8
	ret
	.cfi_endproc
.LFE0:
	.size	swap, .-swap
	.section	.rodata
.LC0:
	.string	"\n Element 0 : %d \n"
.LC1:
	.string	"\n Element 1 : %d \n"
	.text
	.globl	display
	.type	display, @function
display:
.LFB1:
	.cfi_startproc
	pushq	%rbp
	.cfi_def_cfa_offset 16
	.cfi_offset 6, -16
	movq	%rsp, %rbp
	.cfi_def_cfa_register 6
	movl	array(%rip), %eax
	movl	%eax, %esi
	movl	$.LC0, %edi
	movl	$0, %eax
	call	printf
	movl	array+4(%rip), %eax
	movl	%eax, %esi
	movl	$.LC1, %edi
	movl	$0, %eax
	call	printf
	nop
	popq	%rbp
	.cfi_def_cfa 7, 8
	ret
	.cfi_endproc
.LFE1:
	.size	display, .-display
	.ident	"GCC: (Ubuntu 5.4.0-6ubuntu1~16.04.10) 5.4.0 20160609"
	.section	.note.GNU-stack,"",@progbits
